; ModuleID = 'source-C-CXX/41/149.cpp'
source_filename = "source-C-CXX/41/149.cpp"
target datalayout = "e-m:e-p270:32:32-p271:32:32-p272:64:64-i64:64-f80:128-n8:16:32:64-S128"
target triple = "x86_64-pc-linux-gnu"

%"class.std::ios_base::Init" = type { i8 }
%"class.std::basic_istream" = type { i32 (...)**, i64, %"class.std::basic_ios" }
%"class.std::basic_ios" = type { %"class.std::ios_base", %"class.std::basic_ostream"*, i8, i8, %"class.std::basic_streambuf"*, %"class.std::ctype"*, %"class.std::num_put"*, %"class.std::num_get"* }
%"class.std::ios_base" = type { i32 (...)**, i64, i64, i32, i32, i32, %"struct.std::ios_base::_Callback_list"*, %"struct.std::ios_base::_Words", [8 x %"struct.std::ios_base::_Words"], i32, %"struct.std::ios_base::_Words"*, %"class.std::locale" }
%"struct.std::ios_base::_Callback_list" = type { %"struct.std::ios_base::_Callback_list"*, void (i32, %"class.std::ios_base"*, i32)*, i32, i32 }
%"struct.std::ios_base::_Words" = type { i8*, i64 }
%"class.std::locale" = type { %"class.std::locale::_Impl"* }
%"class.std::locale::_Impl" = type { i32, %"class.std::locale::facet"**, i64, %"class.std::locale::facet"**, i8** }
%"class.std::locale::facet" = type <{ i32 (...)**, i32, [4 x i8] }>
%"class.std::basic_ostream" = type { i32 (...)**, %"class.std::basic_ios" }
%"class.std::basic_streambuf" = type { i32 (...)**, i8*, i8*, i8*, i8*, i8*, i8*, %"class.std::locale" }
%"class.std::ctype" = type <{ %"class.std::locale::facet.base", [4 x i8], %struct.__locale_struct*, i8, [7 x i8], i32*, i32*, i16*, i8, [256 x i8], [256 x i8], i8, [6 x i8] }>
%"class.std::locale::facet.base" = type <{ i32 (...)**, i32 }>
%struct.__locale_struct = type { [13 x %struct.__locale_data*], i16*, i32*, i32*, [13 x i8*] }
%struct.__locale_data = type opaque
%"class.std::num_put" = type { %"class.std::locale::facet.base", [4 x i8] }
%"class.std::num_get" = type { %"class.std::locale::facet.base", [4 x i8] }

@_ZStL8__ioinit = internal global %"class.std::ios_base::Init" zeroinitializer, align 1
@__dso_handle = external hidden global i8
@_ZSt3cin = external global %"class.std::basic_istream", align 8
@_ZSt4cout = external global %"class.std::basic_ostream", align 8
@llvm.global_ctors = appending global [1 x { i32, void ()*, i8* }] [{ i32, void ()*, i8* } { i32 65535, void ()* @_GLOBAL__sub_I_149.cpp, i8* null }]

declare void @_ZNSt8ios_base4InitC1Ev(%"class.std::ios_base::Init"* nonnull align 1 dereferenceable(1)) unnamed_addr #0

; Function Attrs: nounwind
declare void @_ZNSt8ios_base4InitD1Ev(%"class.std::ios_base::Init"* nonnull align 1 dereferenceable(1)) unnamed_addr #1

; Function Attrs: nofree nounwind
declare i32 @__cxa_atexit(void (i8*)*, i8*, i8*) local_unnamed_addr #2

; Function Attrs: mustprogress norecurse sspstrong uwtable
define dso_local i32 @main() local_unnamed_addr #3 {
  %1 = alloca i8, align 1
  %2 = alloca i32, align 4
  %3 = alloca i32, align 4
  %4 = bitcast i32* %2 to i8*
  call void @llvm.lifetime.start.p0i8(i64 4, i8* nonnull %4) #7
  %5 = bitcast i32* %3 to i8*
  call void @llvm.lifetime.start.p0i8(i64 4, i8* nonnull %5) #7
  br label %6

6:                                                ; preds = %6, %0
  %7 = call nonnull align 8 dereferenceable(16) %"class.std::basic_istream"* @_ZNSirsERi(%"class.std::basic_istream"* nonnull align 8 dereferenceable(16) @_ZSt3cin, i32* nonnull align 4 dereferenceable(4) %2)
  %8 = load i32, i32* %2, align 4, !tbaa !5
  %9 = add i32 %8, -1
  %10 = icmp ugt i32 %9, 99999
  br i1 %10, label %6, label %11, !llvm.loop !9

11:                                               ; preds = %6
  %12 = zext i32 %8 to i64
  %13 = call i8* @llvm.stacksave()
  %14 = alloca i32, i64 %12, align 16
  br label %15

15:                                               ; preds = %11, %15
  %16 = phi i64 [ 0, %11 ], [ %19, %15 ]
  %17 = getelementptr inbounds i32, i32* %14, i64 %16
  %18 = call nonnull align 8 dereferenceable(16) %"class.std::basic_istream"* @_ZNSirsERi(%"class.std::basic_istream"* nonnull align 8 dereferenceable(16) @_ZSt3cin, i32* nonnull align 4 dereferenceable(4) %17)
  %19 = add nuw nsw i64 %16, 1
  %20 = icmp eq i64 %19, %12
  br i1 %20, label %21, label %15, !llvm.loop !11

21:                                               ; preds = %15, %21
  %22 = call nonnull align 8 dereferenceable(16) %"class.std::basic_istream"* @_ZNSirsERi(%"class.std::basic_istream"* nonnull align 8 dereferenceable(16) @_ZSt3cin, i32* nonnull align 4 dereferenceable(4) %3)
  %23 = load i32, i32* %3, align 4, !tbaa !5
  %24 = add i32 %23, 100000
  %25 = icmp ugt i32 %24, 200000
  br i1 %25, label %21, label %26, !llvm.loop !12

26:                                               ; preds = %21
  %27 = sext i32 %8 to i64
  br label %34

28:                                               ; preds = %117
  %29 = sub nsw i32 %8, %118
  %30 = icmp slt i32 %29, 2
  br i1 %30, label %130, label %31

31:                                               ; preds = %28
  %32 = add nsw i32 %29, -2
  %33 = zext i32 %32 to i64
  br label %122

34:                                               ; preds = %26, %117
  %35 = phi i32 [ %120, %117 ], [ 0, %26 ]
  %36 = phi i32 [ %118, %117 ], [ 0, %26 ]
  %37 = sext i32 %35 to i64
  %38 = getelementptr inbounds i32, i32* %14, i64 %37
  %39 = load i32, i32* %38, align 4, !tbaa !5
  %40 = icmp eq i32 %39, %23
  br i1 %40, label %41, label %117

41:                                               ; preds = %34
  %42 = add nsw i32 %36, 1
  %43 = icmp slt i32 %35, %8
  br i1 %43, label %44, label %115

44:                                               ; preds = %41
  %45 = sub nsw i64 %27, %37
  %46 = icmp ult i64 %45, 8
  br i1 %46, label %106, label %47

47:                                               ; preds = %44
  %48 = and i64 %45, -8
  %49 = add nsw i64 %48, %37
  %50 = add nsw i64 %48, -8
  %51 = lshr exact i64 %50, 3
  %52 = add nuw nsw i64 %51, 1
  %53 = and i64 %52, 1
  %54 = icmp eq i64 %50, 0
  br i1 %54, label %88, label %55

55:                                               ; preds = %47
  %56 = and i64 %52, 4611686018427387902
  br label %57

57:                                               ; preds = %57, %55
  %58 = phi i64 [ 0, %55 ], [ %85, %57 ]
  %59 = phi i64 [ %56, %55 ], [ %86, %57 ]
  %60 = add i64 %58, %37
  %61 = add nsw i64 %60, 1
  %62 = getelementptr inbounds i32, i32* %14, i64 %61
  %63 = bitcast i32* %62 to <4 x i32>*
  %64 = load <4 x i32>, <4 x i32>* %63, align 4, !tbaa !5
  %65 = getelementptr inbounds i32, i32* %62, i64 4
  %66 = bitcast i32* %65 to <4 x i32>*
  %67 = load <4 x i32>, <4 x i32>* %66, align 4, !tbaa !5
  %68 = getelementptr inbounds i32, i32* %14, i64 %60
  %69 = bitcast i32* %68 to <4 x i32>*
  store <4 x i32> %64, <4 x i32>* %69, align 4, !tbaa !5
  %70 = getelementptr inbounds i32, i32* %68, i64 4
  %71 = bitcast i32* %70 to <4 x i32>*
  store <4 x i32> %67, <4 x i32>* %71, align 4, !tbaa !5
  %72 = or i64 %58, 8
  %73 = add i64 %72, %37
  %74 = add nsw i64 %73, 1
  %75 = getelementptr inbounds i32, i32* %14, i64 %74
  %76 = bitcast i32* %75 to <4 x i32>*
  %77 = load <4 x i32>, <4 x i32>* %76, align 4, !tbaa !5
  %78 = getelementptr inbounds i32, i32* %75, i64 4
  %79 = bitcast i32* %78 to <4 x i32>*
  %80 = load <4 x i32>, <4 x i32>* %79, align 4, !tbaa !5
  %81 = getelementptr inbounds i32, i32* %14, i64 %73
  %82 = bitcast i32* %81 to <4 x i32>*
  store <4 x i32> %77, <4 x i32>* %82, align 4, !tbaa !5
  %83 = getelementptr inbounds i32, i32* %81, i64 4
  %84 = bitcast i32* %83 to <4 x i32>*
  store <4 x i32> %80, <4 x i32>* %84, align 4, !tbaa !5
  %85 = add nuw i64 %58, 16
  %86 = add i64 %59, -2
  %87 = icmp eq i64 %86, 0
  br i1 %87, label %88, label %57, !llvm.loop !13

88:                                               ; preds = %57, %47
  %89 = phi i64 [ 0, %47 ], [ %85, %57 ]
  %90 = icmp eq i64 %53, 0
  br i1 %90, label %104, label %91

91:                                               ; preds = %88
  %92 = add i64 %89, %37
  %93 = add nsw i64 %92, 1
  %94 = getelementptr inbounds i32, i32* %14, i64 %93
  %95 = bitcast i32* %94 to <4 x i32>*
  %96 = load <4 x i32>, <4 x i32>* %95, align 4, !tbaa !5
  %97 = getelementptr inbounds i32, i32* %94, i64 4
  %98 = bitcast i32* %97 to <4 x i32>*
  %99 = load <4 x i32>, <4 x i32>* %98, align 4, !tbaa !5
  %100 = getelementptr inbounds i32, i32* %14, i64 %92
  %101 = bitcast i32* %100 to <4 x i32>*
  store <4 x i32> %96, <4 x i32>* %101, align 4, !tbaa !5
  %102 = getelementptr inbounds i32, i32* %100, i64 4
  %103 = bitcast i32* %102 to <4 x i32>*
  store <4 x i32> %99, <4 x i32>* %103, align 4, !tbaa !5
  br label %104

104:                                              ; preds = %88, %91
  %105 = icmp eq i64 %45, %48
  br i1 %105, label %115, label %106

106:                                              ; preds = %44, %104
  %107 = phi i64 [ %37, %44 ], [ %49, %104 ]
  br label %108

108:                                              ; preds = %106, %108
  %109 = phi i64 [ %110, %108 ], [ %107, %106 ]
  %110 = add nsw i64 %109, 1
  %111 = getelementptr inbounds i32, i32* %14, i64 %110
  %112 = load i32, i32* %111, align 4, !tbaa !5
  %113 = getelementptr inbounds i32, i32* %14, i64 %109
  store i32 %112, i32* %113, align 4, !tbaa !5
  %114 = icmp eq i64 %110, %27
  br i1 %114, label %115, label %108, !llvm.loop !15

115:                                              ; preds = %108, %104, %41
  %116 = add nsw i32 %35, -1
  br label %117

117:                                              ; preds = %34, %115
  %118 = phi i32 [ %42, %115 ], [ %36, %34 ]
  %119 = phi i32 [ %116, %115 ], [ %35, %34 ]
  %120 = add nsw i32 %119, 1
  %121 = icmp slt i32 %120, %8
  br i1 %121, label %34, label %28, !llvm.loop !17

122:                                              ; preds = %31, %122
  %123 = phi i64 [ 0, %31 ], [ %128, %122 ]
  %124 = getelementptr inbounds i32, i32* %14, i64 %123
  %125 = load i32, i32* %124, align 4, !tbaa !5
  %126 = call nonnull align 8 dereferenceable(8) %"class.std::basic_ostream"* @_ZNSolsEi(%"class.std::basic_ostream"* nonnull align 8 dereferenceable(8) @_ZSt4cout, i32 %125)
  call void @llvm.lifetime.start.p0i8(i64 1, i8* nonnull %1)
  store i8 32, i8* %1, align 1, !tbaa !18
  %127 = call nonnull align 8 dereferenceable(8) %"class.std::basic_ostream"* @_ZSt16__ostream_insertIcSt11char_traitsIcEERSt13basic_ostreamIT_T0_ES6_PKS3_l(%"class.std::basic_ostream"* nonnull align 8 dereferenceable(8) %126, i8* nonnull %1, i64 1)
  call void @llvm.lifetime.end.p0i8(i64 1, i8* nonnull %1)
  %128 = add nuw nsw i64 %123, 1
  %129 = icmp ult i64 %123, %33
  br i1 %129, label %122, label %130, !llvm.loop !19

130:                                              ; preds = %122, %28
  %131 = add nsw i32 %29, -1
  %132 = sext i32 %131 to i64
  %133 = getelementptr inbounds i32, i32* %14, i64 %132
  %134 = load i32, i32* %133, align 4, !tbaa !5
  %135 = call nonnull align 8 dereferenceable(8) %"class.std::basic_ostream"* @_ZNSolsEi(%"class.std::basic_ostream"* nonnull align 8 dereferenceable(8) @_ZSt4cout, i32 %134)
  call void @llvm.stackrestore(i8* %13)
  call void @llvm.lifetime.end.p0i8(i64 4, i8* nonnull %5) #7
  call void @llvm.lifetime.end.p0i8(i64 4, i8* nonnull %4) #7
  ret i32 0
}

; Function Attrs: argmemonly mustprogress nofree nosync nounwind willreturn
declare void @llvm.lifetime.start.p0i8(i64 immarg, i8* nocapture) #4

declare nonnull align 8 dereferenceable(16) %"class.std::basic_istream"* @_ZNSirsERi(%"class.std::basic_istream"* nonnull align 8 dereferenceable(16), i32* nonnull align 4 dereferenceable(4)) local_unnamed_addr #0

; Function Attrs: mustprogress nofree nosync nounwind willreturn
declare i8* @llvm.stacksave() #5

declare nonnull align 8 dereferenceable(8) %"class.std::basic_ostream"* @_ZNSolsEi(%"class.std::basic_ostream"* nonnull align 8 dereferenceable(8), i32) local_unnamed_addr #0

; Function Attrs: mustprogress nofree nosync nounwind willreturn
declare void @llvm.stackrestore(i8*) #5

; Function Attrs: argmemonly mustprogress nofree nosync nounwind willreturn
declare void @llvm.lifetime.end.p0i8(i64 immarg, i8* nocapture) #4

declare nonnull align 8 dereferenceable(8) %"class.std::basic_ostream"* @_ZSt16__ostream_insertIcSt11char_traitsIcEERSt13basic_ostreamIT_T0_ES6_PKS3_l(%"class.std::basic_ostream"* nonnull align 8 dereferenceable(8), i8*, i64) local_unnamed_addr #0

; Function Attrs: sspstrong uwtable
define internal void @_GLOBAL__sub_I_149.cpp() #6 section ".text.startup" {
  tail call void @_ZNSt8ios_base4InitC1Ev(%"class.std::ios_base::Init"* nonnull align 1 dereferenceable(1) @_ZStL8__ioinit)
  %1 = tail call i32 @__cxa_atexit(void (i8*)* bitcast (void (%"class.std::ios_base::Init"*)* @_ZNSt8ios_base4InitD1Ev to void (i8*)*), i8* getelementptr inbounds (%"class.std::ios_base::Init", %"class.std::ios_base::Init"* @_ZStL8__ioinit, i64 0, i32 0), i8* nonnull @__dso_handle) #7
  ret void
}


!llvm.module.flags = !{!0, !1, !2, !3}
!llvm.ident = !{!4}

!0 = !{i32 1, !"wchar_size", i32 4}
!1 = !{i32 7, !"PIC Level", i32 2}
!2 = !{i32 7, !"PIE Level", i32 2}
!3 = !{i32 7, !"uwtable", i32 1}
!4 = !{!"clang version 13.0.0"}
!5 = !{!6, !6, i64 0}
!6 = !{!"int", !7, i64 0}
!7 = !{!"omnipotent char", !8, i64 0}
!8 = !{!"Simple C++ TBAA"}
!9 = distinct !{!9, !10}
!10 = !{!"llvm.loop.mustprogress"}
!11 = distinct !{!11, !10}
!12 = distinct !{!12, !10}
!13 = distinct !{!13, !10, !14}
!14 = !{!"llvm.loop.isvectorized", i32 1}
!15 = distinct !{!15, !10, !16, !14}
!16 = !{!"llvm.loop.unroll.runtime.disable"}
!17 = distinct !{!17, !10}
!18 = !{!7, !7, i64 0}
!19 = distinct !{!19, !10}
